target datalayout = "e-m:e-p270:32:32-p271:32:32-p272:64:64-i64:64-i128:128-f80:128-n8:16:32:64-S128"
target triple = "x86_64-unknown-linux-gnu"

%struct.UResourceDataEntry = type { ptr, ptr, ptr, ptr, ptr, %struct.ResourceData, [3 x i8], i32, i32 }
%struct.ResourceData = type { ptr, ptr, ptr, ptr, i32, i32, ptr, i32, i32, i8, i8, i8, i8 }
%union.UElement = type { ptr }

; Function Attrs: mustprogress uwtable
define internal noundef signext i8 @_ZL14compareEntries8UElementS_(ptr %p1.coerce, ptr %p2.coerce) #1 {
entry:
  %p1 = alloca %union.UElement, align 8
  %p2 = alloca %union.UElement, align 8
  %b1 = alloca ptr, align 8
  %b2 = alloca ptr, align 8
  %name1 = alloca %union.UElement, align 8
  %name2 = alloca %union.UElement, align 8
  %path1 = alloca %union.UElement, align 8
  %path2 = alloca %union.UElement, align 8
  %agg.tmp = alloca %union.UElement, align 8
  %agg.tmp4 = alloca %union.UElement, align 8
  %agg.tmp7 = alloca %union.UElement, align 8
  %agg.tmp8 = alloca %union.UElement, align 8
  %coerce.dive = getelementptr inbounds %union.UElement, ptr %p1, i32 0, i32 0
  store ptr %p1.coerce, ptr %coerce.dive, align 8
  %coerce.dive1 = getelementptr inbounds %union.UElement, ptr %p2, i32 0, i32 0
  store ptr %p2.coerce, ptr %coerce.dive1, align 8
  %0 = load ptr, ptr %p1, align 8
  store ptr %0, ptr %b1, align 8
  %1 = load ptr, ptr %p2, align 8
  store ptr %1, ptr %b2, align 8
  %2 = load ptr, ptr %b1, align 8
  %fName = getelementptr inbounds %struct.UResourceDataEntry, ptr %2, i32 0, i32 0
  %3 = load ptr, ptr %fName, align 8
  store ptr %3, ptr %name1, align 8
  %4 = load ptr, ptr %b2, align 8
  %fName2 = getelementptr inbounds %struct.UResourceDataEntry, ptr %4, i32 0, i32 0
  %5 = load ptr, ptr %fName2, align 8
  store ptr %5, ptr %name2, align 8
  %6 = load ptr, ptr %b1, align 8
  %fPath = getelementptr inbounds %struct.UResourceDataEntry, ptr %6, i32 0, i32 1
  %7 = load ptr, ptr %fPath, align 8
  store ptr %7, ptr %path1, align 8
  %8 = load ptr, ptr %b2, align 8
  %fPath3 = getelementptr inbounds %struct.UResourceDataEntry, ptr %8, i32 0, i32 1
  %9 = load ptr, ptr %fPath3, align 8
  store ptr %9, ptr %path2, align 8
  call void @llvm.memcpy.p0.p0.i64(ptr align 8 %agg.tmp, ptr align 8 %name1, i64 8, i1 false)
  call void @llvm.memcpy.p0.p0.i64(ptr align 8 %agg.tmp4, ptr align 8 %name2, i64 8, i1 false)
  %coerce.dive5 = getelementptr inbounds %union.UElement, ptr %agg.tmp, i32 0, i32 0
  %10 = load ptr, ptr %coerce.dive5, align 8
  %coerce.dive6 = getelementptr inbounds %union.UElement, ptr %agg.tmp4, i32 0, i32 0
  %11 = load ptr, ptr %coerce.dive6, align 8
  %call = call signext i8 @uhash_compareChars_75(ptr %10, ptr %11)
  %tobool = icmp ne i8 %call, 0
  br i1 %tobool, label %land.rhs, label %land.end

land.rhs:                                         ; preds = %entry
  call void @llvm.memcpy.p0.p0.i64(ptr align 8 %agg.tmp7, ptr align 8 %path1, i64 8, i1 false)
  call void @llvm.memcpy.p0.p0.i64(ptr align 8 %agg.tmp8, ptr align 8 %path2, i64 8, i1 false)
  %coerce.dive9 = getelementptr inbounds %union.UElement, ptr %agg.tmp7, i32 0, i32 0
  %12 = load ptr, ptr %coerce.dive9, align 8
  %coerce.dive10 = getelementptr inbounds %union.UElement, ptr %agg.tmp8, i32 0, i32 0
  %13 = load ptr, ptr %coerce.dive10, align 8
  %call11 = call signext i8 @uhash_compareChars_75(ptr %12, ptr %13)
  %tobool12 = icmp ne i8 %call11, 0
  br label %land.end

land.end:                                         ; preds = %land.rhs, %entry
  %14 = phi i1 [ false, %entry ], [ %tobool12, %land.rhs ]
  %conv = zext i1 %14 to i8
  ret i8 %conv
}