; Function Attrs: mustprogress uwtable
define internal noundef signext i8 @_ZL14compareEntries8UElementS_(ptr nocapture readonly %p1.coerce, ptr nocapture readonly %p2.coerce) #1 {
entry:
  %0 = load ptr, ptr %p1.coerce, align 8
  %1 = load ptr, ptr %p2.coerce, align 8
  %fPath = getelementptr inbounds i8, ptr %p1.coerce, i64 8
  %2 = load ptr, ptr %fPath, align 8
  %fPath3 = getelementptr inbounds i8, ptr %p2.coerce, i64 8
  %3 = load ptr, ptr %fPath3, align 8
  %call = tail call signext i8 @uhash_compareChars_75(ptr %0, ptr %1)
  %tobool.not = icmp eq i8 %call, 0
  br i1 %tobool.not, label %land.end, label %land.rhs

land.rhs:                                         ; preds = %entry
  %call11 = tail call signext i8 @uhash_compareChars_75(ptr %2, ptr %3)
  %tobool12 = icmp ne i8 %call11, 0
  %4 = zext i1 %tobool12 to i8
  br label %land.end

land.end:                                         ; preds = %land.rhs, %entry
  %conv = phi i8 [ 0, %entry ], [ %4, %land.rhs ]
  ret i8 %conv
}